target datalayout = "e-m:e-p270:32:32-p271:32:32-p272:64:64-i64:64-i128:128-f80:128-n8:16:32:64-S128"
target triple = "x86_64-pc-linux-gnu"

%struct.uv_stat_t = type { i64, i64, i64, i64, i64, i64, i64, i64, i64, i64, i64, i64, %struct.uv_timespec_t, %struct.uv_timespec_t, %struct.uv_timespec_t, %struct.uv_timespec_t }
%struct.uv_timespec_t = type { i64, i64 }
%struct.uv_loop_s = type { ptr, i32, [2 x ptr], %union.anon.1, ptr, i32, i64, i32, [2 x ptr], [2 x ptr], ptr, i32, i32, [2 x ptr], %union.pthread_mutex_t, %struct.uv_async_s, %union.pthread_rwlock_t, ptr, [2 x ptr], [2 x ptr], [2 x ptr], [2 x ptr], [2 x ptr], ptr, %struct.uv__io_s, i32, %struct.anon, i64, i64, [2 x i32], %struct.uv__io_s, %struct.uv_signal_s, i32, %struct.uv__io_s, ptr, i32 }
%union.anon.1 = type { ptr }
%union.pthread_mutex_t = type { %struct.__pthread_mutex_s }
%struct.__pthread_mutex_s = type { i32, i32, i32, i32, i32, i16, i16, %struct.__pthread_internal_list }
%struct.__pthread_internal_list = type { ptr, ptr }
%struct.uv_async_s = type { ptr, ptr, i32, ptr, [2 x ptr], %union.anon.2, ptr, i32, ptr, [2 x ptr], i32 }
%union.anon.2 = type { [4 x ptr] }
%union.pthread_rwlock_t = type { %struct.__pthread_rwlock_arch_t }
%struct.__pthread_rwlock_arch_t = type { i32, i32, i32, i32, i32, i32, i32, i32, i8, [7 x i8], i64, i32 }
%struct.anon = type { ptr, i32 }
%struct.uv_signal_s = type { ptr, ptr, i32, ptr, [2 x ptr], %union.anon.3, ptr, i32, ptr, i32, %struct.anon.4, i32, i32 }
%union.anon.3 = type { [4 x ptr] }
%struct.anon.4 = type { ptr, ptr, ptr, i32 }
%struct.uv__io_s = type { ptr, [2 x ptr], [2 x ptr], i32, i32, i32 }
%struct.uv_fs_poll_s = type { ptr, ptr, i32, ptr, [2 x ptr], %union.anon, ptr, i32, ptr }
%union.anon = type { [4 x ptr] }
%struct.poll_ctx = type { ptr, i32, i32, i64, ptr, ptr, %struct.uv_timer_s, %struct.uv_fs_s, %struct.uv_stat_t, ptr, [1 x i8] }
%struct.uv_timer_s = type { ptr, ptr, i32, ptr, [2 x ptr], %union.anon.5, ptr, i32, ptr, [3 x ptr], i64, i64, i64 }
%union.anon.5 = type { [4 x ptr] }
%struct.uv_fs_s = type { ptr, i32, [6 x ptr], i32, ptr, ptr, i64, ptr, ptr, %struct.uv_stat_t, ptr, i32, i32, i32, i32, ptr, i64, i32, i32, double, double, %struct.uv__work, [4 x %struct.uv_buf_t] }
%struct.uv__work = type { ptr, ptr, ptr, [2 x ptr] }
%struct.uv_buf_t = type { ptr, i64 }

; Function Attrs: nounwind uwtable
define dso_local i32 @uv_fs_poll_stop(ptr noundef %0) #0 {
  %2 = alloca i32, align 4
  %3 = alloca ptr, align 8
  %4 = alloca ptr, align 8
  %5 = alloca i32, align 4
  store ptr %0, ptr %3, align 8, !tbaa !9
  call void @llvm.lifetime.start.p0(i64 8, ptr %4) #6
  %6 = load ptr, ptr %3, align 8, !tbaa !9
  %7 = call i32 @uv_is_active(ptr noundef %6)
  %8 = icmp ne i32 %7, 0
  br i1 %8, label %10, label %9

9:                                                ; preds = %1
  store i32 0, ptr %2, align 4
  store i32 1, ptr %5, align 4
  br label %52

10:                                               ; preds = %1
  %11 = load ptr, ptr %3, align 8, !tbaa !9
  %12 = getelementptr inbounds nuw %struct.uv_fs_poll_s, ptr %11, i32 0, i32 8
  %13 = load ptr, ptr %12, align 8, !tbaa !19
  store ptr %13, ptr %4, align 8, !tbaa !27
  %14 = load ptr, ptr %4, align 8, !tbaa !27
  %15 = getelementptr inbounds nuw %struct.poll_ctx, ptr %14, i32 0, i32 6
  %16 = call i32 @uv_is_active(ptr noundef %15)
  %17 = icmp ne i32 %16, 0
  br i1 %17, label %18, label %21

18:                                               ; preds = %10
  %19 = load ptr, ptr %4, align 8, !tbaa !27
  %20 = getelementptr inbounds nuw %struct.poll_ctx, ptr %19, i32 0, i32 6
  call void @uv_close(ptr noundef %20, ptr noundef @timer_close_cb)
  br label %21

21:                                               ; preds = %18, %10
  br label %22

22:                                               ; preds = %21
  %23 = load ptr, ptr %3, align 8, !tbaa !9
  %24 = getelementptr inbounds nuw %struct.uv_fs_poll_s, ptr %23, i32 0, i32 7
  %25 = load i32, ptr %24, align 8, !tbaa !54
  %26 = and i32 %25, 4
  %27 = icmp eq i32 %26, 0
  br i1 %27, label %28, label %29

28:                                               ; preds = %22
  br label %51

29:                                               ; preds = %22
  %30 = load ptr, ptr %3, align 8, !tbaa !9
  %31 = getelementptr inbounds nuw %struct.uv_fs_poll_s, ptr %30, i32 0, i32 7
  %32 = load i32, ptr %31, align 8, !tbaa !54
  %33 = and i32 %32, -5
  store i32 %33, ptr %31, align 8, !tbaa !54
  %34 = load ptr, ptr %3, align 8, !tbaa !9
  %35 = getelementptr inbounds nuw %struct.uv_fs_poll_s, ptr %34, i32 0, i32 7
  %36 = load i32, ptr %35, align 8, !tbaa !54
  %37 = and i32 %36, 8
  %38 = icmp ne i32 %37, 0
  br i1 %38, label %39, label %49

39:                                               ; preds = %29
  br label %40

40:                                               ; preds = %39
  %41 = load ptr, ptr %3, align 8, !tbaa !9
  %42 = getelementptr inbounds nuw %struct.uv_fs_poll_s, ptr %41, i32 0, i32 1
  %43 = load ptr, ptr %42, align 8, !tbaa !24
  %44 = getelementptr inbounds nuw %struct.uv_loop_s, ptr %43, i32 0, i32 1
  %45 = load i32, ptr %44, align 8, !tbaa !44
  %46 = add i32 %45, -1
  store i32 %46, ptr %44, align 8, !tbaa !44
  br label %47

47:                                               ; preds = %40
  br label %48

48:                                               ; preds = %47
  br label %49

49:                                               ; preds = %48, %29
  br label %50

50:                                               ; preds = %49
  br label %51

51:                                               ; preds = %50, %28
  store i32 0, ptr %2, align 4
  store i32 1, ptr %5, align 4
  br label %52

52:                                               ; preds = %51, %9
  call void @llvm.lifetime.end.p0(i64 8, ptr %4) #6
  %53 = load i32, ptr %2, align 4
  ret i32 %53
}