; Function Attrs: nounwind uwtable
define dso_local noundef i32 @uv_fs_poll_stop(ptr noundef %0) local_unnamed_addr #1 {
  %2 = tail call i32 @uv_is_active(ptr noundef %0) #7
  %.not = icmp eq i32 %2, 0
  br i1 %.not, label %23, label %3

3:                                                ; preds = %1
  %4 = getelementptr inbounds nuw i8, ptr %0, i64 96
  %5 = load ptr, ptr %4, align 8, !tbaa !16
  %6 = getelementptr inbounds nuw i8, ptr %5, i64 40
  %7 = tail call i32 @uv_is_active(ptr noundef nonnull %6) #7
  %.not8 = icmp eq i32 %7, 0
  br i1 %.not8, label %9, label %8

8:                                                ; preds = %3
  tail call void @uv_close(ptr noundef nonnull %6, ptr noundef nonnull @timer_close_cb) #7
  br label %9

9:                                                ; preds = %3, %8
  %10 = getelementptr inbounds nuw i8, ptr %0, i64 88
  %11 = load i32, ptr %10, align 8, !tbaa !48
  %12 = and i32 %11, 4
  %13 = icmp eq i32 %12, 0
  br i1 %13, label %23, label %14

14:                                               ; preds = %9
  %15 = and i32 %11, -5
  store i32 %15, ptr %10, align 8, !tbaa !48
  %16 = and i32 %11, 8
  %.not9 = icmp eq i32 %16, 0
  br i1 %.not9, label %23, label %17

17:                                               ; preds = %14
  %18 = getelementptr inbounds nuw i8, ptr %0, i64 8
  %19 = load ptr, ptr %18, align 8, !tbaa !18
  %20 = getelementptr inbounds nuw i8, ptr %19, i64 8
  %21 = load i32, ptr %20, align 8, !tbaa !38
  %22 = add i32 %21, -1
  store i32 %22, ptr %20, align 8, !tbaa !38
  br label %23

23:                                               ; preds = %9, %14, %17, %1
  ret i32 0
}